target datalayout = "e-m:e-p270:32:32-p271:32:32-p272:64:64-i64:64-i128:128-f80:128-n8:16:32:64-S128"
target triple = "x86_64-unknown-linux-gnu"

%struct.QEMUTimer = type { i64, ptr, ptr, ptr, ptr, i32, i32 }

@.str.1 = private unnamed_addr constant [26 x i8] c"../qemu/util/qemu-timer.c\00", align 1
@.str.2 = private unnamed_addr constant [22 x i8] c"ts->expire_time == -1\00", align 1
@__PRETTY_FUNCTION__.timer_deinit = private unnamed_addr constant [31 x i8] c"void timer_deinit(QEMUTimer *)\00", align 1

; Function Attrs: nounwind sspstrong uwtable
define dso_local void @timer_deinit(ptr noundef %ts) #0 {
entry:
  %ts.addr = alloca ptr, align 8
  store ptr %ts, ptr %ts.addr, align 8
  %0 = load ptr, ptr %ts.addr, align 8
  %expire_time = getelementptr inbounds %struct.QEMUTimer, ptr %0, i32 0, i32 0
  %1 = load i64, ptr %expire_time, align 8
  %cmp = icmp eq i64 %1, -1
  br i1 %cmp, label %if.then, label %if.else

if.then:                                          ; preds = %entry
  br label %if.end

if.else:                                          ; preds = %entry
  call void @__assert_fail(ptr noundef @.str.2, ptr noundef @.str.1, i32 noundef 377, ptr noundef @__PRETTY_FUNCTION__.timer_deinit) #7
  unreachable

if.end:                                           ; preds = %if.then
  %2 = load ptr, ptr %ts.addr, align 8
  %timer_list = getelementptr inbounds %struct.QEMUTimer, ptr %2, i32 0, i32 1
  store ptr null, ptr %timer_list, align 8
  ret void
}