; Function Attrs: nounwind sspstrong uwtable
define dso_local void @timer_deinit(ptr noundef captures(none) %ts) local_unnamed_addr #0 {
entry:
  %0 = load i64, ptr %ts, align 8
  %cmp = icmp eq i64 %0, -1
  br i1 %cmp, label %if.end, label %if.else

if.else:                                          ; preds = %entry
  tail call void @__assert_fail(ptr noundef nonnull @.str.2, ptr noundef nonnull @.str.1, i32 noundef 377, ptr noundef nonnull @__PRETTY_FUNCTION__.timer_deinit) #18
  unreachable

if.end:                                           ; preds = %entry
  %timer_list = getelementptr inbounds nuw i8, ptr %ts, i64 8
  store ptr null, ptr %timer_list, align 8
  ret void
}